target datalayout = "e-m:e-p270:32:32-p271:32:32-p272:64:64-i64:64-i128:128-f80:128-n8:16:32:64-S128"
target triple = "x86_64-pc-linux-gnu"

%struct.H5G_loc_t = type { ptr, ptr }
%struct.H5O_loc_t = type { ptr, i64, i8 }
%struct.H5G_name_t = type { ptr, ptr, i32 }

@.str.3 = private unnamed_addr constant [100 x i8] c"generated/home/dtcxzyw/WorkSpace/Projects/compilers/llvm-opt-benchmark/bench/hdf5/hdf5/src/H5Aint.c\00", align 1
@H5E_ATTR_g = external global i64, align 8
@H5E_CANTINIT_g = external global i64, align 8
@H5E_NOTFOUND_g = external global i64, align 8
@H5E_CANTFREE_g = external global i64, align 8
@.str.27 = private unnamed_addr constant [22 x i8] c"can't close attribute\00", align 1
@__func__.H5A__create_by_name = private unnamed_addr constant [20 x i8] c"H5A__create_by_name\00", align 1
@.str.28 = private unnamed_addr constant [17 x i8] c"object not found\00", align 1
@.str.29 = private unnamed_addr constant [27 x i8] c"unable to create attribute\00", align 1
@H5E_CANTRELEASE_g = external global i64, align 8
@.str.30 = private unnamed_addr constant [20 x i8] c"can't free location\00", align 1

; Function Attrs: nounwind uwtable
define ptr @H5A__create_by_name(ptr noundef %0, ptr noundef %1, ptr noundef %2, ptr noundef %3, ptr noundef %4, i64 noundef %5) #0 {
  %7 = alloca ptr, align 8
  %8 = alloca ptr, align 8
  %9 = alloca ptr, align 8
  %10 = alloca ptr, align 8
  %11 = alloca ptr, align 8
  %12 = alloca i64, align 8
  %13 = alloca %struct.H5G_loc_t, align 8
  %14 = alloca %struct.H5G_name_t, align 8
  %15 = alloca %struct.H5O_loc_t, align 8
  %16 = alloca i8, align 1
  %17 = alloca ptr, align 8
  %18 = alloca ptr, align 8
  %19 = alloca i8, align 1
  store ptr %0, ptr %7, align 8
  store ptr %1, ptr %8, align 8
  store ptr %2, ptr %9, align 8
  store ptr %3, ptr %10, align 8
  store ptr %4, ptr %11, align 8
  store i64 %5, ptr %12, align 8
  store i8 0, ptr %16, align 1
  store ptr null, ptr %17, align 8
  store ptr null, ptr %18, align 8
  store i8 0, ptr %19, align 1
  %20 = getelementptr inbounds %struct.H5G_loc_t, ptr %13, i32 0, i32 0
  store ptr %15, ptr %20, align 8
  %21 = getelementptr inbounds %struct.H5G_loc_t, ptr %13, i32 0, i32 1
  store ptr %14, ptr %21, align 8
  %22 = call i32 @H5G_loc_reset(ptr noundef %13)
  %23 = load ptr, ptr %7, align 8
  %24 = load ptr, ptr %8, align 8
  %25 = call i32 @H5G_loc_find(ptr noundef %23, ptr noundef %24, ptr noundef %13)
  %26 = icmp slt i32 %25, 0
  br i1 %26, label %27, label %42

27:                                               ; preds = %6
  br label %28

28:                                               ; preds = %27
  br label %29

29:                                               ; preds = %28
  br label %30

30:                                               ; preds = %29
  %31 = load i64, ptr @H5E_ATTR_g, align 8
  %32 = load i64, ptr @H5E_NOTFOUND_g, align 8
  %33 = call i32 (ptr, ptr, i32, i64, i64, ptr, ...) @H5E_printf_stack(ptr noundef @.str.3, ptr noundef @__func__.H5A__create_by_name, i32 noundef 416, i64 noundef %31, i64 noundef %32, ptr noundef @.str.28)
  br label %34

34:                                               ; preds = %30
  store i8 1, ptr %19, align 1
  %35 = load i8, ptr %19, align 1
  %36 = trunc i8 %35 to i1
  %37 = zext i1 %36 to i8
  store i8 %37, ptr %19, align 1
  br label %38

38:                                               ; preds = %34
  br label %39

39:                                               ; preds = %38
  store ptr null, ptr %18, align 8
  br label %66

40:                                               ; No predecessors!
  br label %41

41:                                               ; preds = %40
  br label %42

42:                                               ; preds = %41, %6
  store i8 1, ptr %16, align 1
  %43 = load ptr, ptr %9, align 8
  %44 = load ptr, ptr %10, align 8
  %45 = load ptr, ptr %11, align 8
  %46 = load i64, ptr %12, align 8
  %47 = call ptr @H5A__create(ptr noundef %13, ptr noundef %43, ptr noundef %44, ptr noundef %45, i64 noundef %46)
  store ptr %47, ptr %17, align 8
  %48 = icmp eq ptr null, %47
  br i1 %48, label %49, label %64

49:                                               ; preds = %42
  br label %50

50:                                               ; preds = %49
  br label %51

51:                                               ; preds = %50
  br label %52

52:                                               ; preds = %51
  %53 = load i64, ptr @H5E_ATTR_g, align 8
  %54 = load i64, ptr @H5E_CANTINIT_g, align 8
  %55 = call i32 (ptr, ptr, i32, i64, i64, ptr, ...) @H5E_printf_stack(ptr noundef @.str.3, ptr noundef @__func__.H5A__create_by_name, i32 noundef 421, i64 noundef %53, i64 noundef %54, ptr noundef @.str.29)
  br label %56

56:                                               ; preds = %52
  store i8 1, ptr %19, align 1
  %57 = load i8, ptr %19, align 1
  %58 = trunc i8 %57 to i1
  %59 = zext i1 %58 to i8
  store i8 %59, ptr %19, align 1
  br label %60

60:                                               ; preds = %56
  br label %61

61:                                               ; preds = %60
  store ptr null, ptr %18, align 8
  br label %66

62:                                               ; No predecessors!
  br label %63

63:                                               ; preds = %62
  br label %64

64:                                               ; preds = %63, %42
  %65 = load ptr, ptr %17, align 8
  store ptr %65, ptr %18, align 8
  br label %66

66:                                               ; preds = %64, %61, %39
  %67 = load i8, ptr %16, align 1
  %68 = trunc i8 %67 to i1
  br i1 %68, label %69, label %85

69:                                               ; preds = %66
  %70 = call i32 @H5G_loc_free(ptr noundef %13)
  %71 = icmp slt i32 %70, 0
  br i1 %71, label %72, label %85

72:                                               ; preds = %69
  br label %73

73:                                               ; preds = %72
  br label %74

74:                                               ; preds = %73
  br label %75

75:                                               ; preds = %74
  %76 = load i64, ptr @H5E_ATTR_g, align 8
  %77 = load i64, ptr @H5E_CANTRELEASE_g, align 8
  %78 = call i32 (ptr, ptr, i32, i64, i64, ptr, ...) @H5E_printf_stack(ptr noundef @.str.3, ptr noundef @__func__.H5A__create_by_name, i32 noundef 429, i64 noundef %76, i64 noundef %77, ptr noundef @.str.30)
  br label %79

79:                                               ; preds = %75
  store i8 1, ptr %19, align 1
  %80 = load i8, ptr %19, align 1
  %81 = trunc i8 %80 to i1
  %82 = zext i1 %81 to i8
  store i8 %82, ptr %19, align 1
  br label %83

83:                                               ; preds = %79
  store ptr null, ptr %18, align 8
  br label %84

84:                                               ; preds = %83
  br label %85

85:                                               ; preds = %84, %69, %66
  %86 = load ptr, ptr %18, align 8
  %87 = icmp eq ptr %86, null
  br i1 %87, label %88, label %109

88:                                               ; preds = %85
  %89 = load ptr, ptr %17, align 8
  %90 = icmp ne ptr %89, null
  br i1 %90, label %91, label %108

91:                                               ; preds = %88
  %92 = load ptr, ptr %17, align 8
  %93 = call i32 @H5A__close(ptr noundef %92)
  %94 = icmp slt i32 %93, 0
  br i1 %94, label %95, label %108

95:                                               ; preds = %91
  br label %96

96:                                               ; preds = %95
  br label %97

97:                                               ; preds = %96
  br label %98

98:                                               ; preds = %97
  %99 = load i64, ptr @H5E_ATTR_g, align 8
  %100 = load i64, ptr @H5E_CANTFREE_g, align 8
  %101 = call i32 (ptr, ptr, i32, i64, i64, ptr, ...) @H5E_printf_stack(ptr noundef @.str.3, ptr noundef @__func__.H5A__create_by_name, i32 noundef 434, i64 noundef %99, i64 noundef %100, ptr noundef @.str.27)
  br label %102

102:                                              ; preds = %98
  store i8 1, ptr %19, align 1
  %103 = load i8, ptr %19, align 1
  %104 = trunc i8 %103 to i1
  %105 = zext i1 %104 to i8
  store i8 %105, ptr %19, align 1
  br label %106

106:                                              ; preds = %102
  store ptr null, ptr %18, align 8
  br label %107

107:                                              ; preds = %106
  br label %108

108:                                              ; preds = %107, %91, %88
  br label %109

109:                                              ; preds = %108, %85
  %110 = load ptr, ptr %18, align 8
  ret ptr %110
}