; Function Attrs: nounwind uwtable
define ptr @H5A__create_by_name(ptr noundef %0, ptr noundef %1, ptr noundef %2, ptr noundef %3, ptr noundef %4, i64 noundef %5) local_unnamed_addr #0 {
  %7 = alloca %struct.H5G_loc_t, align 8
  %8 = alloca %struct.H5G_name_t, align 8
  %9 = alloca %struct.H5O_loc_t, align 8
  store ptr %9, ptr %7, align 8
  %10 = getelementptr inbounds i8, ptr %7, i64 8
  store ptr %8, ptr %10, align 8
  %11 = call i32 @H5G_loc_reset(ptr noundef nonnull %7) #13
  %12 = call i32 @H5G_loc_find(ptr noundef %0, ptr noundef %1, ptr noundef nonnull %7) #13
  %13 = icmp sgt i32 %12, -1
  br i1 %13, label %14, label %.thread23

14:                                               ; preds = %6
  %15 = call ptr @H5A__create(ptr noundef nonnull %7, ptr noundef %2, ptr noundef %3, ptr noundef %4, i64 noundef %5)
  %16 = icmp eq ptr %15, null
  br i1 %16, label %17, label %24

17:                                               ; preds = %14
  %18 = load i64, ptr @H5E_ATTR_g, align 8
  %19 = load i64, ptr @H5E_CANTINIT_g, align 8
  %20 = call i32 (ptr, ptr, i32, i64, i64, ptr, ...) @H5E_printf_stack(ptr noundef nonnull @.str.3, ptr noundef nonnull @__func__.H5A__create_by_name, i32 noundef 421, i64 noundef %18, i64 noundef %19, ptr noundef nonnull @.str.29) #13
  br label %24

.thread23:                                        ; preds = %6
  %21 = load i64, ptr @H5E_ATTR_g, align 8
  %22 = load i64, ptr @H5E_NOTFOUND_g, align 8
  %23 = call i32 (ptr, ptr, i32, i64, i64, ptr, ...) @H5E_printf_stack(ptr noundef nonnull @.str.3, ptr noundef nonnull @__func__.H5A__create_by_name, i32 noundef 416, i64 noundef %21, i64 noundef %22, ptr noundef nonnull @.str.28) #13
  br label %41

24:                                               ; preds = %14, %17
  %25 = call i32 @H5G_loc_free(ptr noundef nonnull %7) #13
  %26 = icmp slt i32 %25, 0
  br i1 %26, label %27, label %31

27:                                               ; preds = %24
  %28 = load i64, ptr @H5E_ATTR_g, align 8
  %29 = load i64, ptr @H5E_CANTRELEASE_g, align 8
  %30 = call i32 (ptr, ptr, i32, i64, i64, ptr, ...) @H5E_printf_stack(ptr noundef nonnull @.str.3, ptr noundef nonnull @__func__.H5A__create_by_name, i32 noundef 429, i64 noundef %28, i64 noundef %29, ptr noundef nonnull @.str.30) #13
  br label %31

31:                                               ; preds = %27, %24
  %.1 = phi ptr [ null, %27 ], [ %15, %24 ]
  %32 = icmp eq ptr %.1, null
  %33 = icmp ne ptr %15, null
  %or.cond = and i1 %33, %32
  br i1 %or.cond, label %34, label %41

34:                                               ; preds = %31
  %35 = call i32 @H5A__close(ptr noundef nonnull %15)
  %36 = icmp slt i32 %35, 0
  br i1 %36, label %37, label %41

37:                                               ; preds = %34
  %38 = load i64, ptr @H5E_ATTR_g, align 8
  %39 = load i64, ptr @H5E_CANTFREE_g, align 8
  %40 = call i32 (ptr, ptr, i32, i64, i64, ptr, ...) @H5E_printf_stack(ptr noundef nonnull @.str.3, ptr noundef nonnull @__func__.H5A__create_by_name, i32 noundef 434, i64 noundef %38, i64 noundef %39, ptr noundef nonnull @.str.27) #13
  br label %41

41:                                               ; preds = %.thread23, %34, %37, %31
  %.2 = phi ptr [ null, %37 ], [ null, %34 ], [ %.1, %31 ], [ null, %.thread23 ]
  ret ptr %.2
}